(lp0
(S'cppflags'
p1
ccopy_reg
_reconstructor
p2
(cino.utils
SpaceList
p3
c__builtin__
list
p4
(lp5
S'-mmcu=atmega328p'
p6
aS'-DF_CPU=16000000L'
p7
aS'-DARDUINO=100'
p8
aS'-I/usr/share/arduino/hardware/arduino/cores/arduino'
p9
aS'-ffunction-sections'
p10
aS'-fdata-sections'
p11
aS'-g'
p12
aS'-Os'
p13
aS'-w'
p14
aS'-I/usr/share/arduino/hardware/arduino/variants/standard'
p15
aS'-I/usr/share/arduino/libraries/LiquidCrystal'
p16
aS'-I/usr/share/arduino/libraries/SoftwareSerial'
p17
aS'-I/usr/share/arduino/hardware/arduino/cores/arduino'
p18
atp19
Rp20
tp21
a(S'cxx'
p22
S'/usr/bin/avr-g++'
p23
tp24
a(S'arduino_libraries_dir'
p25
S'/usr/share/arduino/libraries'
p26
tp27
a(S'avrdude'
p28
S'/usr/share/arduino/hardware/tools/avrdude'
p29
tp30
a(S'ar'
p31
S'/usr/bin/avr-ar'
p32
tp33
a(S'names'
p34
(dp35
S'cpp'
p36
S'%s.cpp'
p37
sS'obj'
p38
S'%s.o'
p39
sS'lib'
p40
S'lib%s.a'
p41
sS'deps'
p42
S'%s.d'
p43
stp44
a(S'ldflags'
p45
g2
(g3
g4
(lp46
g6
aS'-Wl,-Os'
p47
aS'-Wl,--gc-sections'
p48
atp49
Rp50
tp51
a(S'arduino_lib_version'
p52
g2
(cino.environment
Version
p53
c__builtin__
tuple
p54
(I1
I0
I0
tp55
tp56
Rp57
tp58
a(S'objcopy'
p59
S'/usr/bin/avr-objcopy'
p60
tp61
a(S'board_models'
p62
cino.environment
BoardModels
p63
((lp64
(lp65
S'uno'
p66
a(dp67
S'bootloader'
p68
(dp69
S'extended_fuses'
p70
S'0x05'
p71
sS'high_fuses'
p72
S'0xde'
p73
sS'low_fuses'
p74
S'0xff'
p75
sS'lock_bits'
p76
S'0x0F'
p77
sS'file'
p78
S'optiboot_atmega328.hex'
p79
sS'path'
p80
S'optiboot'
p81
sS'unlock_bits'
p82
S'0x3F'
p83
ssS'build'
p84
(dp85
S'core'
p86
S'arduino'
p87
sS'mcu'
p88
S'atmega328p'
p89
sS'f_cpu'
p90
S'16000000L'
p91
sS'variant'
p92
S'standard'
p93
ssS'name'
p94
S'Arduino Uno'
p95
sS'upload'
p96
(dp97
S'speed'
p98
S'115200'
p99
sS'maximum_size'
p100
S'32256'
p101
sS'protocol'
p102
S'arduino'
p103
ssaa(lp104
S'atmega328'
p105
a(dp106
S'bootloader'
p107
(dp108
S'extended_fuses'
p109
S'0x05'
p110
sS'high_fuses'
p111
S'0xDA'
p112
sS'low_fuses'
p113
S'0xFF'
p114
sS'lock_bits'
p115
S'0x0F'
p116
sS'file'
p117
S'ATmegaBOOT_168_atmega328.hex'
p118
sS'path'
p119
S'atmega'
p120
sS'unlock_bits'
p121
S'0x3F'
p122
ssS'build'
p123
(dp124
S'core'
p125
S'arduino'
p126
sS'mcu'
p127
S'atmega328p'
p128
sS'f_cpu'
p129
S'16000000L'
p130
sS'variant'
p131
S'standard'
p132
ssS'name'
p133
S'Arduino Duemilanove w/ ATmega328'
p134
sS'upload'
p135
(dp136
S'speed'
p137
S'57600'
p138
sS'maximum_size'
p139
S'30720'
p140
sS'protocol'
p141
S'arduino'
p142
ssaa(lp143
S'diecimila'
p144
a(dp145
S'bootloader'
p146
(dp147
S'extended_fuses'
p148
S'0x00'
p149
sS'high_fuses'
p150
S'0xdd'
p151
sS'low_fuses'
p152
S'0xff'
p153
sS'lock_bits'
p154
S'0x0F'
p155
sS'file'
p156
S'ATmegaBOOT_168_diecimila.hex'
p157
sS'path'
p158
S'atmega'
p159
sS'unlock_bits'
p160
S'0x3F'
p161
ssS'build'
p162
(dp163
S'core'
p164
S'arduino'
p165
sS'mcu'
p166
S'atmega168'
p167
sS'f_cpu'
p168
S'16000000L'
p169
sS'variant'
p170
S'standard'
p171
ssS'name'
p172
S'Arduino Diecimila or Duemilanove w/ ATmega168'
p173
sS'upload'
p174
(dp175
S'speed'
p176
S'19200'
p177
sS'maximum_size'
p178
S'14336'
p179
sS'protocol'
p180
S'arduino'
p181
ssaa(lp182
S'nano328'
p183
a(dp184
S'bootloader'
p185
(dp186
S'extended_fuses'
p187
S'0x05'
p188
sS'high_fuses'
p189
S'0xDA'
p190
sS'low_fuses'
p191
S'0xFF'
p192
sS'lock_bits'
p193
S'0x0F'
p194
sS'file'
p195
S'ATmegaBOOT_168_atmega328.hex'
p196
sS'path'
p197
S'atmega'
p198
sS'unlock_bits'
p199
S'0x3F'
p200
ssS'build'
p201
(dp202
S'core'
p203
S'arduino'
p204
sS'mcu'
p205
S'atmega328p'
p206
sS'f_cpu'
p207
S'16000000L'
p208
sS'variant'
p209
S'eightanaloginputs'
p210
ssS'name'
p211
S'Arduino Nano w/ ATmega328'
p212
sS'upload'
p213
(dp214
S'speed'
p215
S'57600'
p216
sS'maximum_size'
p217
S'30720'
p218
sS'protocol'
p219
S'arduino'
p220
ssaa(lp221
S'nano'
p222
a(dp223
S'bootloader'
p224
(dp225
S'extended_fuses'
p226
S'0x00'
p227
sS'high_fuses'
p228
S'0xdd'
p229
sS'low_fuses'
p230
S'0xff'
p231
sS'lock_bits'
p232
S'0x0F'
p233
sS'file'
p234
S'ATmegaBOOT_168_diecimila.hex'
p235
sS'path'
p236
S'atmega'
p237
sS'unlock_bits'
p238
S'0x3F'
p239
ssS'build'
p240
(dp241
S'core'
p242
S'arduino'
p243
sS'mcu'
p244
S'atmega168'
p245
sS'f_cpu'
p246
S'16000000L'
p247
sS'variant'
p248
S'eightanaloginputs'
p249
ssS'name'
p250
S'Arduino Nano w/ ATmega168'
p251
sS'upload'
p252
(dp253
S'speed'
p254
S'19200'
p255
sS'maximum_size'
p256
S'14336'
p257
sS'protocol'
p258
S'arduino'
p259
ssaa(lp260
S'mega2560'
p261
a(dp262
S'bootloader'
p263
(dp264
S'extended_fuses'
p265
S'0xFD'
p266
sS'high_fuses'
p267
S'0xD8'
p268
sS'low_fuses'
p269
S'0xFF'
p270
sS'lock_bits'
p271
S'0x0F'
p272
sS'file'
p273
S'stk500boot_v2_mega2560.hex'
p274
sS'path'
p275
S'stk500v2'
p276
sS'unlock_bits'
p277
S'0x3F'
p278
ssS'build'
p279
(dp280
S'core'
p281
S'arduino'
p282
sS'mcu'
p283
S'atmega2560'
p284
sS'f_cpu'
p285
S'16000000L'
p286
sS'variant'
p287
S'mega'
p288
ssS'name'
p289
S'Arduino Mega 2560 or Mega ADK'
p290
sS'upload'
p291
(dp292
S'speed'
p293
S'115200'
p294
sS'maximum_size'
p295
S'258048'
p296
sS'protocol'
p297
S'stk500v2'
p298
ssaa(lp299
S'mega'
p300
a(dp301
S'bootloader'
p302
(dp303
S'extended_fuses'
p304
S'0xF5'
p305
sS'high_fuses'
p306
S'0xDA'
p307
sS'low_fuses'
p308
S'0xFF'
p309
sS'lock_bits'
p310
S'0x0F'
p311
sS'file'
p312
S'ATmegaBOOT_168_atmega1280.hex'
p313
sS'path'
p314
S'atmega'
p315
sS'unlock_bits'
p316
S'0x3F'
p317
ssS'build'
p318
(dp319
S'core'
p320
S'arduino'
p321
sS'mcu'
p322
S'atmega1280'
p323
sS'f_cpu'
p324
S'16000000L'
p325
sS'variant'
p326
S'mega'
p327
ssS'name'
p328
S'Arduino Mega (ATmega1280)'
p329
sS'upload'
p330
(dp331
S'speed'
p332
S'57600'
p333
sS'maximum_size'
p334
S'126976'
p335
sS'protocol'
p336
S'arduino'
p337
ssaa(lp338
S'mini328'
p339
a(dp340
S'bootloader'
p341
(dp342
S'extended_fuses'
p343
S'0x05'
p344
sS'high_fuses'
p345
S'0xd8'
p346
sS'low_fuses'
p347
S'0xff'
p348
sS'lock_bits'
p349
S'0x0F'
p350
sS'file'
p351
S'optiboot_atmega328-Mini.hex'
p352
sS'path'
p353
S'optiboot'
p354
sS'unlock_bits'
p355
S'0x3F'
p356
ssS'build'
p357
(dp358
S'core'
p359
S'arduino'
p360
sS'mcu'
p361
S'atmega328p'
p362
sS'f_cpu'
p363
S'16000000L'
p364
sS'variant'
p365
S'eightanaloginputs'
p366
ssS'name'
p367
S'Arduino Mini w/ ATmega328'
p368
sS'upload'
p369
(dp370
S'speed'
p371
S'115200'
p372
sS'maximum_size'
p373
S'28672'
p374
sS'protocol'
p375
S'stk500'
p376
ssaa(lp377
S'mini'
p378
a(dp379
S'bootloader'
p380
(dp381
S'extended_fuses'
p382
S'0x00'
p383
sS'high_fuses'
p384
S'0xdd'
p385
sS'low_fuses'
p386
S'0xff'
p387
sS'lock_bits'
p388
S'0x0F'
p389
sS'file'
p390
S'ATmegaBOOT_168_ng.hex'
p391
sS'path'
p392
S'atmega'
p393
sS'unlock_bits'
p394
S'0x3F'
p395
ssS'build'
p396
(dp397
S'core'
p398
S'arduino'
p399
sS'mcu'
p400
S'atmega168'
p401
sS'f_cpu'
p402
S'16000000L'
p403
sS'variant'
p404
S'eightanaloginputs'
p405
ssS'name'
p406
S'Arduino Mini w/ ATmega168'
p407
sS'upload'
p408
(dp409
S'speed'
p410
S'19200'
p411
sS'maximum_size'
p412
S'14336'
p413
sS'protocol'
p414
S'arduino'
p415
ssaa(lp416
S'ethernet'
p417
a(dp418
S'bootloader'
p419
(dp420
S'extended_fuses'
p421
S'0x05'
p422
sS'high_fuses'
p423
S'0xde'
p424
sS'low_fuses'
p425
S'0xff'
p426
sS'lock_bits'
p427
S'0x0F'
p428
sS'file'
p429
S'optiboot_atmega328.hex'
p430
sS'path'
p431
S'optiboot'
p432
sS'unlock_bits'
p433
S'0x3F'
p434
ssS'build'
p435
(dp436
S'f_cpu'
p437
S'16000000L'
p438
sS'mcu'
p439
S'atmega328p'
p440
sS'variant'
p441
S'standard'
p442
sS'core'
p443
S'arduino'
p444
ssS'name'
p445
S'Arduino Ethernet'
p446
sS'upload'
p447
(dp448
S'speed'
p449
S'115200'
p450
sS'maximum_size'
p451
S'32256'
p452
sS'protocol'
p453
S'arduino'
p454
ssaa(lp455
S'fio'
p456
a(dp457
S'bootloader'
p458
(dp459
S'extended_fuses'
p460
S'0x05'
p461
sS'high_fuses'
p462
S'0xDA'
p463
sS'low_fuses'
p464
S'0xFF'
p465
sS'lock_bits'
p466
S'0x0F'
p467
sS'file'
p468
S'ATmegaBOOT_168_atmega328_pro_8MHz.hex'
p469
sS'path'
p470
S'arduino:atmega'
p471
sS'unlock_bits'
p472
S'0x3F'
p473
ssS'build'
p474
(dp475
S'core'
p476
S'arduino'
p477
sS'mcu'
p478
S'atmega328p'
p479
sS'f_cpu'
p480
S'8000000L'
p481
sS'variant'
p482
S'eightanaloginputs'
p483
ssS'name'
p484
S'Arduino Fio'
p485
sS'upload'
p486
(dp487
S'speed'
p488
S'57600'
p489
sS'maximum_size'
p490
S'30720'
p491
sS'protocol'
p492
S'arduino'
p493
ssaa(lp494
S'bt328'
p495
a(dp496
S'bootloader'
p497
(dp498
S'extended_fuses'
p499
S'0x05'
p500
sS'high_fuses'
p501
S'0xd8'
p502
sS'low_fuses'
p503
S'0xff'
p504
sS'lock_bits'
p505
S'0x0F'
p506
sS'file'
p507
S'ATmegaBOOT_168_atmega328_bt.hex'
p508
sS'path'
p509
S'bt'
p510
sS'unlock_bits'
p511
S'0x3F'
p512
ssS'build'
p513
(dp514
S'core'
p515
S'arduino'
p516
sS'mcu'
p517
S'atmega328p'
p518
sS'f_cpu'
p519
S'16000000L'
p520
sS'variant'
p521
S'eightanaloginputs'
p522
ssS'name'
p523
S'Arduino BT w/ ATmega328'
p524
sS'upload'
p525
(dp526
S'speed'
p527
S'19200'
p528
sS'maximum_size'
p529
S'28672'
p530
sS'protocol'
p531
S'arduino'
p532
sS'disable_flushing'
p533
S'true'
p534
ssaa(lp535
S'bt'
p536
a(dp537
S'bootloader'
p538
(dp539
S'extended_fuses'
p540
S'0x00'
p541
sS'high_fuses'
p542
S'0xdd'
p543
sS'low_fuses'
p544
S'0xff'
p545
sS'lock_bits'
p546
S'0x0F'
p547
sS'file'
p548
S'ATmegaBOOT_168.hex'
p549
sS'path'
p550
S'bt'
p551
sS'unlock_bits'
p552
S'0x3F'
p553
ssS'build'
p554
(dp555
S'core'
p556
S'arduino'
p557
sS'mcu'
p558
S'atmega168'
p559
sS'f_cpu'
p560
S'16000000L'
p561
sS'variant'
p562
S'eightanaloginputs'
p563
ssS'name'
p564
S'Arduino BT w/ ATmega168'
p565
sS'upload'
p566
(dp567
S'speed'
p568
S'19200'
p569
sS'maximum_size'
p570
S'14336'
p571
sS'protocol'
p572
S'arduino'
p573
sS'disable_flushing'
p574
S'true'
p575
ssaa(lp576
S'lilypad328'
p577
a(dp578
S'bootloader'
p579
(dp580
S'extended_fuses'
p581
S'0x05'
p582
sS'high_fuses'
p583
S'0xDA'
p584
sS'low_fuses'
p585
S'0xFF'
p586
sS'lock_bits'
p587
S'0x0F'
p588
sS'file'
p589
S'ATmegaBOOT_168_atmega328_pro_8MHz.hex'
p590
sS'path'
p591
S'atmega'
p592
sS'unlock_bits'
p593
S'0x3F'
p594
ssS'build'
p595
(dp596
S'core'
p597
S'arduino'
p598
sS'mcu'
p599
S'atmega328p'
p600
sS'f_cpu'
p601
S'8000000L'
p602
sS'variant'
p603
S'standard'
p604
ssS'name'
p605
S'LilyPad Arduino w/ ATmega328'
p606
sS'upload'
p607
(dp608
S'speed'
p609
S'57600'
p610
sS'maximum_size'
p611
S'30720'
p612
sS'protocol'
p613
S'arduino'
p614
ssaa(lp615
S'lilypad'
p616
a(dp617
S'bootloader'
p618
(dp619
S'extended_fuses'
p620
S'0x00'
p621
sS'high_fuses'
p622
S'0xdd'
p623
sS'low_fuses'
p624
S'0xe2'
p625
sS'lock_bits'
p626
S'0x0F'
p627
sS'file'
p628
S'LilyPadBOOT_168.hex'
p629
sS'path'
p630
S'lilypad'
p631
sS'unlock_bits'
p632
S'0x3F'
p633
ssS'build'
p634
(dp635
S'core'
p636
S'arduino'
p637
sS'mcu'
p638
S'atmega168'
p639
sS'f_cpu'
p640
S'8000000L'
p641
sS'variant'
p642
S'standard'
p643
ssS'name'
p644
S'LilyPad Arduino w/ ATmega168'
p645
sS'upload'
p646
(dp647
S'speed'
p648
S'19200'
p649
sS'maximum_size'
p650
S'14336'
p651
sS'protocol'
p652
S'arduino'
p653
ssaa(lp654
S'pro5v328'
p655
a(dp656
S'bootloader'
p657
(dp658
S'extended_fuses'
p659
S'0x05'
p660
sS'high_fuses'
p661
S'0xDA'
p662
sS'low_fuses'
p663
S'0xFF'
p664
sS'lock_bits'
p665
S'0x0F'
p666
sS'file'
p667
S'ATmegaBOOT_168_atmega328.hex'
p668
sS'path'
p669
S'atmega'
p670
sS'unlock_bits'
p671
S'0x3F'
p672
ssS'build'
p673
(dp674
S'core'
p675
S'arduino'
p676
sS'mcu'
p677
S'atmega328p'
p678
sS'f_cpu'
p679
S'16000000L'
p680
sS'variant'
p681
S'standard'
p682
ssS'name'
p683
S'Arduino Pro or Pro Mini (5V, 16 MHz) w/ ATmega328'
p684
sS'upload'
p685
(dp686
S'speed'
p687
S'57600'
p688
sS'maximum_size'
p689
S'30720'
p690
sS'protocol'
p691
S'arduino'
p692
ssaa(lp693
S'pro5v'
p694
a(dp695
S'bootloader'
p696
(dp697
S'extended_fuses'
p698
S'0x00'
p699
sS'high_fuses'
p700
S'0xdd'
p701
sS'low_fuses'
p702
S'0xff'
p703
sS'lock_bits'
p704
S'0x0F'
p705
sS'file'
p706
S'ATmegaBOOT_168_diecimila.hex'
p707
sS'path'
p708
S'atmega'
p709
sS'unlock_bits'
p710
S'0x3F'
p711
ssS'build'
p712
(dp713
S'core'
p714
S'arduino'
p715
sS'mcu'
p716
S'atmega168'
p717
sS'f_cpu'
p718
S'16000000L'
p719
sS'variant'
p720
S'standard'
p721
ssS'name'
p722
S'Arduino Pro or Pro Mini (5V, 16 MHz) w/ ATmega168'
p723
sS'upload'
p724
(dp725
S'speed'
p726
S'19200'
p727
sS'maximum_size'
p728
S'14336'
p729
sS'protocol'
p730
S'arduino'
p731
ssaa(lp732
S'pro328'
p733
a(dp734
S'bootloader'
p735
(dp736
S'extended_fuses'
p737
S'0x05'
p738
sS'high_fuses'
p739
S'0xDA'
p740
sS'low_fuses'
p741
S'0xFF'
p742
sS'lock_bits'
p743
S'0x0F'
p744
sS'file'
p745
S'ATmegaBOOT_168_atmega328_pro_8MHz.hex'
p746
sS'path'
p747
S'atmega'
p748
sS'unlock_bits'
p749
S'0x3F'
p750
ssS'build'
p751
(dp752
S'core'
p753
S'arduino'
p754
sS'mcu'
p755
S'atmega328p'
p756
sS'f_cpu'
p757
S'8000000L'
p758
sS'variant'
p759
S'standard'
p760
ssS'name'
p761
S'Arduino Pro or Pro Mini (3.3V, 8 MHz) w/ ATmega328'
p762
sS'upload'
p763
(dp764
S'speed'
p765
S'57600'
p766
sS'maximum_size'
p767
S'30720'
p768
sS'protocol'
p769
S'arduino'
p770
ssaa(lp771
S'pro'
p772
a(dp773
S'bootloader'
p774
(dp775
S'extended_fuses'
p776
S'0x00'
p777
sS'high_fuses'
p778
S'0xdd'
p779
sS'low_fuses'
p780
S'0xc6'
p781
sS'lock_bits'
p782
S'0x0F'
p783
sS'file'
p784
S'ATmegaBOOT_168_pro_8MHz.hex'
p785
sS'path'
p786
S'atmega'
p787
sS'unlock_bits'
p788
S'0x3F'
p789
ssS'build'
p790
(dp791
S'core'
p792
S'arduino'
p793
sS'mcu'
p794
S'atmega168'
p795
sS'f_cpu'
p796
S'8000000L'
p797
sS'variant'
p798
S'standard'
p799
ssS'name'
p800
S'Arduino Pro or Pro Mini (3.3V, 8 MHz) w/ ATmega168'
p801
sS'upload'
p802
(dp803
S'speed'
p804
S'19200'
p805
sS'maximum_size'
p806
S'14336'
p807
sS'protocol'
p808
S'arduino'
p809
ssaa(lp810
S'atmega168'
p811
a(dp812
S'bootloader'
p813
(dp814
S'extended_fuses'
p815
S'0x00'
p816
sS'high_fuses'
p817
S'0xdd'
p818
sS'low_fuses'
p819
S'0xff'
p820
sS'lock_bits'
p821
S'0x0F'
p822
sS'file'
p823
S'ATmegaBOOT_168_ng.hex'
p824
sS'path'
p825
S'atmega'
p826
sS'unlock_bits'
p827
S'0x3F'
p828
ssS'build'
p829
(dp830
S'core'
p831
S'arduino'
p832
sS'mcu'
p833
S'atmega168'
p834
sS'f_cpu'
p835
S'16000000L'
p836
sS'variant'
p837
S'standard'
p838
ssS'name'
p839
S'Arduino NG or older w/ ATmega168'
p840
sS'upload'
p841
(dp842
S'speed'
p843
S'19200'
p844
sS'maximum_size'
p845
S'14336'
p846
sS'protocol'
p847
S'arduino'
p848
ssaa(lp849
S'atmega8'
p850
a(dp851
S'bootloader'
p852
(dp853
S'high_fuses'
p854
S'0xca'
p855
sS'low_fuses'
p856
S'0xdf'
p857
sS'lock_bits'
p858
S'0x0F'
p859
sS'file'
p860
S'ATmegaBOOT.hex'
p861
sS'path'
p862
S'atmega8'
p863
sS'unlock_bits'
p864
S'0x3F'
p865
ssS'build'
p866
(dp867
S'core'
p868
S'arduino'
p869
sS'mcu'
p870
S'atmega8'
p871
sS'f_cpu'
p872
S'16000000L'
p873
sS'variant'
p874
S'standard'
p875
ssS'name'
p876
S'Arduino NG or older w/ ATmega8'
p877
sS'upload'
p878
(dp879
S'speed'
p880
S'19200'
p881
sS'maximum_size'
p882
S'7168'
p883
sS'protocol'
p884
S'arduino'
p885
ssaatp886
Rp887
(dp888
S'default'
p889
S'uno'
p890
sbtp891
a(S'used_libs'
p892
(lp893
S'/usr/share/arduino/libraries/LiquidCrystal'
p894
aS'/usr/share/arduino/libraries/SoftwareSerial'
p895
aS'/usr/share/arduino/hardware/arduino/cores/arduino'
p896
atp897
a(S'make'
p898
S'/usr/bin/make'
p899
tp900
a(S'build_dir'
p901
S'.build/uno'
p902
tp903
a(S'cc'
p904
S'/usr/bin/avr-gcc'
p905
tp906
a(S'cflags'
p907
g2
(g3
g4
(lp908
tp909
Rp910
tp911
a(S'cxxflags'
p912
g2
(g3
g4
(lp913
S'-fno-exceptions'
p914
atp915
Rp916
tp917
a(S'arduino_variants_dir'
p918
S'/usr/share/arduino/hardware/arduino/variants'
p919
tp920
a(S'stty'
p921
S'/bin/stty'
p922
tp923
a(S'version.txt'
p924
S'/usr/share/arduino/lib/version.txt'
p925
tp926
a(S'arduino_core_dir'
p927
g896
tp928
a(S'boards.txt'
p929
S'/usr/share/arduino/hardware/arduino/boards.txt'
p930
tp931
a(S'avrdude.conf'
p932
S'/usr/share/arduino/hardware/tools/avrdude.conf'
p933
tp934
a(S'deps'
p935
g2
(g3
g4
(lp936
S'.build/uno/src/dependencies.d'
p937
aS'.build/uno/arduino/dependencies.d'
p938
aS'.build/uno/LiquidCrystal/dependencies.d'
p939
aS'.build/uno/SoftwareSerial/dependencies.d'
p940
atp941
Rp942
tp943
a.